; ModuleID = '60/1009.c'
source_filename = "60/1009.c"
target datalayout = "e-m:e-p270:32:32-p271:32:32-p272:64:64-i64:64-f80:128-n8:16:32:64-S128"
target triple = "x86_64-pc-linux-gnu"

@.str = private unnamed_addr constant [3 x i8] c"%d\00", align 1
@.str.1 = private unnamed_addr constant [7 x i8] c"%d %d\0A\00", align 1
@.str.2 = private unnamed_addr constant [7 x i8] c"empty\0A\00", align 1

; Function Attrs: noinline nounwind uwtable
define dso_local void @main() #0 {
  %1 = alloca i32, align 4
  %2 = alloca i32, align 4
  %3 = alloca i32, align 4
  %4 = alloca i32, align 4
  %5 = alloca i32, align 4
  store i32 0, i32* %3, align 4
  store i32 1, i32* %5, align 4
  %6 = call i32 (i8*, ...) @__isoc99_scanf(i8* getelementptr inbounds ([3 x i8], [3 x i8]* @.str, i64 0, i64 0), i32* %1)
  store i32 3, i32* %2, align 4
  br label %7

7:                                                ; preds = %26, %0
  %8 = load i32, i32* %2, align 4
  %9 = load i32, i32* %1, align 4
  %10 = icmp sle i32 %8, %9
  br i1 %10, label %11, label %29

11:                                               ; preds = %7
  %12 = load i32, i32* %2, align 4
  %13 = call i32 @isprime(i32 %12)
  store i32 %13, i32* %4, align 4
  %14 = load i32, i32* %3, align 4
  %15 = icmp ne i32 %14, 0
  br i1 %15, label %16, label %24

16:                                               ; preds = %11
  %17 = load i32, i32* %4, align 4
  %18 = icmp ne i32 %17, 0
  br i1 %18, label %19, label %24

19:                                               ; preds = %16
  %20 = load i32, i32* %2, align 4
  %21 = sub nsw i32 %20, 2
  %22 = load i32, i32* %2, align 4
  %23 = call i32 (i8*, ...) @printf(i8* getelementptr inbounds ([7 x i8], [7 x i8]* @.str.1, i64 0, i64 0), i32 %21, i32 %22)
  store i32 0, i32* %5, align 4
  br label %24

24:                                               ; preds = %19, %16, %11
  %25 = load i32, i32* %4, align 4
  store i32 %25, i32* %3, align 4
  br label %26

26:                                               ; preds = %24
  %27 = load i32, i32* %2, align 4
  %28 = add nsw i32 %27, 2
  store i32 %28, i32* %2, align 4
  br label %7

29:                                               ; preds = %7
  %30 = load i32, i32* %5, align 4
  %31 = icmp ne i32 %30, 0
  br i1 %31, label %32, label %34

32:                                               ; preds = %29
  %33 = call i32 (i8*, ...) @printf(i8* getelementptr inbounds ([7 x i8], [7 x i8]* @.str.2, i64 0, i64 0))
  br label %34

34:                                               ; preds = %32, %29
  ret void
}

declare dso_local i32 @__isoc99_scanf(i8*, ...) #1

; Function Attrs: noinline nounwind uwtable
define dso_local i32 @isprime(i32 %0) #0 {
  %2 = alloca i32, align 4
  %3 = alloca i32, align 4
  %4 = alloca i32, align 4
  store i32 %0, i32* %3, align 4
  %5 = load i32, i32* %3, align 4
  %6 = icmp eq i32 %5, 3
  br i1 %6, label %7, label %8

7:                                                ; preds = %1
  store i32 1, i32* %2, align 4
  br label %24

8:                                                ; preds = %1
  store i32 3, i32* %4, align 4
  br label %9

9:                                                ; preds = %20, %8
  %10 = load i32, i32* %4, align 4
  %11 = load i32, i32* %3, align 4
  %12 = icmp slt i32 %10, %11
  br i1 %12, label %13, label %23

13:                                               ; preds = %9
  %14 = load i32, i32* %3, align 4
  %15 = load i32, i32* %4, align 4
  %16 = srem i32 %14, %15
  %17 = icmp eq i32 %16, 0
  br i1 %17, label %18, label %19

18:                                               ; preds = %13
  store i32 0, i32* %2, align 4
  br label %24

19:                                               ; preds = %13
  br label %20

20:                                               ; preds = %19
  %21 = load i32, i32* %4, align 4
  %22 = add nsw i32 %21, 2
  store i32 %22, i32* %4, align 4
  br label %9

23:                                               ; preds = %9
  store i32 1, i32* %2, align 4
  br label %24

24:                                               ; preds = %23, %18, %7
  %25 = load i32, i32* %2, align 4
  ret i32 %25
}

declare dso_local i32 @printf(i8*, ...) #1


!llvm.module.flags = !{!0}
!llvm.ident = !{!1}

!0 = !{i32 1, !"wchar_size", i32 4}
!1 = !{!"clang version 10.0.0-4ubuntu1 "}
